; Function Attrs: nounwind uwtable
define internal ptr @spl_fixedarray_object_get_gc(ptr noundef %0, ptr nocapture noundef writeonly %1, ptr nocapture noundef writeonly %2) #0 {
  %4 = getelementptr inbounds i8, ptr %0, i64 -32
  %5 = tail call ptr @zend_std_get_properties(ptr noundef %0) #12
  %6 = getelementptr inbounds i8, ptr %0, i64 -24
  %7 = load ptr, ptr %6, align 8
  store ptr %7, ptr %1, align 8
  %8 = load i64, ptr %4, align 8
  %9 = trunc i64 %8 to i32
  store i32 %9, ptr %2, align 4
  ret ptr %5
}